; Function Attrs: mustprogress uwtable
define hidden void @_ZN2cv11xfeatures2d28BriefDescriptorExtractorImplC2Eib(ptr noundef nonnull align 8 dereferenceable(24) initializes((0, 13), (16, 24)) %0, ptr noundef %1, i32 noundef %2, i1 noundef zeroext %3) unnamed_addr #3 align 2 personality ptr @__gxx_personality_v0 {
  %5 = alloca %"class.std::__cxx11::basic_string", align 8
  %6 = alloca %"class.std::allocator", align 1
  %7 = zext i1 %3 to i8
  %8 = getelementptr inbounds nuw i8, ptr %1, i64 8
  %9 = getelementptr inbounds nuw i8, ptr %1, i64 16
  %10 = load ptr, ptr %9, align 8
  store ptr %10, ptr %0, align 8, !tbaa !14
  %11 = getelementptr inbounds nuw i8, ptr %1, i64 24
  %12 = load ptr, ptr %11, align 8
  %13 = getelementptr i8, ptr %10, i64 -80
  %14 = load i64, ptr %13, align 8
  %15 = getelementptr inbounds i8, ptr %0, i64 %14
  store ptr %12, ptr %15, align 8, !tbaa !14
  %16 = load ptr, ptr %8, align 8
  store ptr %16, ptr %0, align 8, !tbaa !14
  %17 = getelementptr inbounds nuw i8, ptr %1, i64 32
  %18 = load ptr, ptr %17, align 8
  %19 = getelementptr i8, ptr %16, i64 -80
  %20 = load i64, ptr %19, align 8
  %21 = getelementptr inbounds i8, ptr %0, i64 %20
  store ptr %18, ptr %21, align 8, !tbaa !14
  %22 = load ptr, ptr %1, align 8
  store ptr %22, ptr %0, align 8, !tbaa !14
  %23 = getelementptr inbounds nuw i8, ptr %1, i64 40
  %24 = load ptr, ptr %23, align 8
  %25 = getelementptr i8, ptr %22, i64 -80
  %26 = load i64, ptr %25, align 8
  %27 = getelementptr inbounds i8, ptr %0, i64 %26
  store ptr %24, ptr %27, align 8, !tbaa !14
  %28 = getelementptr inbounds nuw i8, ptr %0, i64 8
  store i32 %2, ptr %28, align 8, !tbaa !34
  %29 = getelementptr inbounds nuw i8, ptr %0, i64 12
  store i8 %7, ptr %29, align 4, !tbaa !39
  %30 = getelementptr inbounds nuw i8, ptr %0, i64 16
  store ptr null, ptr %30, align 8, !tbaa !40
  switch i32 %2, label %33 [
    i32 16, label %46
    i32 32, label %31
    i32 64, label %32
  ]

31:                                               ; preds = %4
  br label %46

32:                                               ; preds = %4
  br label %46

33:                                               ; preds = %4
  call void @llvm.lifetime.start.p0(i64 32, ptr nonnull %5) #25
  call void @llvm.lifetime.start.p0(i64 1, ptr nonnull %6) #25
  invoke void @_ZNSt7__cxx1112basic_stringIcSt11char_traitsIcESaIcEEC2EPKcRKS3_(ptr noundef nonnull align 8 dereferenceable(32) %5, ptr noundef nonnull @.str.1, ptr noundef nonnull align 1 dereferenceable(1) %6)
          to label %34 unwind label %36

34:                                               ; preds = %33
  invoke void @_ZN2cv5errorEiRKNSt7__cxx1112basic_stringIcSt11char_traitsIcESaIcEEEPKcS9_i(i32 noundef -5, ptr noundef nonnull align 8 dereferenceable(32) %5, ptr noundef nonnull @__func__._ZN2cv11xfeatures2d28BriefDescriptorExtractorImplC2Eib, ptr noundef nonnull @.str.2, i32 noundef 196) #26
          to label %35 unwind label %38

35:                                               ; preds = %34
  unreachable

36:                                               ; preds = %33
  %37 = landingpad { ptr, i32 }
          cleanup
  br label %_ZNSt7__cxx1112basic_stringIcSt11char_traitsIcESaIcEED2Ev.exit

38:                                               ; preds = %34
  %39 = landingpad { ptr, i32 }
          cleanup
  %40 = load ptr, ptr %5, align 8, !tbaa !32
  %41 = getelementptr inbounds nuw i8, ptr %5, i64 16
  %42 = icmp eq ptr %40, %41
  br i1 %42, label %_ZNKSt7__cxx1112basic_stringIcSt11char_traitsIcESaIcEE11_M_is_localEv.exit.thread.i.i, label %_ZNKSt7__cxx1112basic_stringIcSt11char_traitsIcESaIcEE11_M_is_localEv.exit.i.i

_ZNKSt7__cxx1112basic_stringIcSt11char_traitsIcESaIcEE11_M_is_localEv.exit.thread.i.i: ; preds = %38
  %43 = getelementptr inbounds nuw i8, ptr %5, i64 8
  %44 = load i64, ptr %43, align 8, !tbaa !26
  %45 = icmp ult i64 %44, 16
  call void @llvm.assume(i1 %45)
  br label %_ZNSt7__cxx1112basic_stringIcSt11char_traitsIcESaIcEED2Ev.exit

_ZNKSt7__cxx1112basic_stringIcSt11char_traitsIcESaIcEE11_M_is_localEv.exit.i.i: ; preds = %38
  call void @_ZdlPv(ptr noundef %40) #24
  br label %_ZNSt7__cxx1112basic_stringIcSt11char_traitsIcESaIcEED2Ev.exit

_ZNSt7__cxx1112basic_stringIcSt11char_traitsIcESaIcEED2Ev.exit: ; preds = %_ZNKSt7__cxx1112basic_stringIcSt11char_traitsIcESaIcEE11_M_is_localEv.exit.i.i, %_ZNKSt7__cxx1112basic_stringIcSt11char_traitsIcESaIcEE11_M_is_localEv.exit.thread.i.i, %36
  %.pn = phi { ptr, i32 } [ %37, %36 ], [ %39, %_ZNKSt7__cxx1112basic_stringIcSt11char_traitsIcESaIcEE11_M_is_localEv.exit.thread.i.i ], [ %39, %_ZNKSt7__cxx1112basic_stringIcSt11char_traitsIcESaIcEE11_M_is_localEv.exit.i.i ]
  call void @llvm.lifetime.end.p0(i64 1, ptr nonnull %6) #25
  call void @llvm.lifetime.end.p0(i64 32, ptr nonnull %5) #25
  call void @_ZN2cv9Feature2DD2Ev(ptr noundef nonnull align 8 dereferenceable(8) %0, ptr noundef nonnull %9) #25
  resume { ptr, i32 } %.pn

46:                                               ; preds = %4, %32, %31
  %_ZN2cv11xfeatures2dL12pixelTests64ERKNS_11_InputArrayERKSt6vectorINS_8KeyPointESaIS5_EERKNS_12_OutputArrayEb.sink = phi ptr [ @_ZN2cv11xfeatures2dL12pixelTests64ERKNS_11_InputArrayERKSt6vectorINS_8KeyPointESaIS5_EERKNS_12_OutputArrayEb, %32 ], [ @_ZN2cv11xfeatures2dL12pixelTests32ERKNS_11_InputArrayERKSt6vectorINS_8KeyPointESaIS5_EERKNS_12_OutputArrayEb, %31 ], [ @_ZN2cv11xfeatures2dL12pixelTests16ERKNS_11_InputArrayERKSt6vectorINS_8KeyPointESaIS5_EERKNS_12_OutputArrayEb, %4 ]
  store ptr %_ZN2cv11xfeatures2dL12pixelTests64ERKNS_11_InputArrayERKSt6vectorINS_8KeyPointESaIS5_EERKNS_12_OutputArrayEb.sink, ptr %30, align 8, !tbaa !40
  ret void
}